; Function Attrs: mustprogress nounwind uwtable
define hidden void @_ZN6cvtest8BaseTestD2Ev(ptr noundef nonnull align 8 dereferenceable(56) initializes((0, 8)) %0) unnamed_addr #9 align 2 personality ptr @__gxx_personality_v0 {
  store ptr getelementptr inbounds nuw inrange(-16, 104) (i8, ptr @_ZTVN6cvtest8BaseTestE, i64 16), ptr %0, align 8, !tbaa !3
  %2 = getelementptr inbounds nuw i8, ptr %0, i64 16
  %3 = load ptr, ptr %2, align 8, !tbaa !15
  %4 = getelementptr inbounds nuw i8, ptr %0, i64 32
  %5 = icmp eq ptr %3, %4
  br i1 %5, label %_ZNKSt7__cxx1112basic_stringIcSt11char_traitsIcESaIcEE11_M_is_localEv.exit.thread.i.i, label %_ZNKSt7__cxx1112basic_stringIcSt11char_traitsIcESaIcEE11_M_is_localEv.exit.i.i

_ZNKSt7__cxx1112basic_stringIcSt11char_traitsIcESaIcEE11_M_is_localEv.exit.thread.i.i: ; preds = %1
  %6 = getelementptr inbounds nuw i8, ptr %0, i64 24
  %7 = load i64, ptr %6, align 8, !tbaa !11
  %8 = icmp ult i64 %7, 16
  tail call void @llvm.assume(i1 %8)
  br label %_ZNSt7__cxx1112basic_stringIcSt11char_traitsIcESaIcEED2Ev.exit

_ZNKSt7__cxx1112basic_stringIcSt11char_traitsIcESaIcEE11_M_is_localEv.exit.i.i: ; preds = %1
  tail call void @_ZdlPv(ptr noundef %3) #42
  br label %_ZNSt7__cxx1112basic_stringIcSt11char_traitsIcESaIcEED2Ev.exit

_ZNSt7__cxx1112basic_stringIcSt11char_traitsIcESaIcEED2Ev.exit: ; preds = %_ZNKSt7__cxx1112basic_stringIcSt11char_traitsIcESaIcEE11_M_is_localEv.exit.thread.i.i, %_ZNKSt7__cxx1112basic_stringIcSt11char_traitsIcESaIcEE11_M_is_localEv.exit.i.i
  ret void
}